target datalayout = "e-m:e-p270:32:32-p271:32:32-p272:64:64-i64:64-i128:128-f80:128-n8:16:32:64-S128"
target triple = "x86_64-pc-linux-gnu"

%struct.yaml_emitter_s = type { i32, ptr, ptr, ptr, %union.anon, %struct.anon.0, %struct.anon.1, i32, i32, i32, i32, i32, i32, %struct.anon.2, i32, %struct.anon.3, %struct.anon.4, %struct.anon.5, i32, i32, i32, i32, i32, i32, i32, i32, i32, i32, i32, %struct.anon.6, %struct.anon.7, %struct.anon.8, i32, i32, ptr, i32, ptr }
%union.anon = type { %struct.anon }
%struct.anon = type { ptr, i64, ptr }
%struct.anon.0 = type { ptr, ptr, ptr, ptr }
%struct.anon.1 = type { ptr, ptr, ptr, ptr }
%struct.anon.2 = type { ptr, ptr, ptr }
%struct.anon.3 = type { ptr, ptr, ptr, ptr }
%struct.anon.4 = type { ptr, ptr, ptr }
%struct.anon.5 = type { ptr, ptr, ptr }
%struct.anon.6 = type { ptr, i64, i32 }
%struct.anon.7 = type { ptr, i64, ptr, i64 }
%struct.anon.8 = type { ptr, i64, i32, i32, i32, i32, i32, i32 }
%struct.yaml_event_s = type { i32, %union.anon.20, %struct.yaml_mark_s, %struct.yaml_mark_s }
%union.anon.20 = type { %struct.anon.26 }
%struct.anon.26 = type { ptr, ptr, ptr, i64, i32, i32, i32 }
%struct.yaml_mark_s = type { i64, i64, i64 }

@.str.6 = private unnamed_addr constant [33 x i8] c"%s:%d %s: YAML emitter error: %s\00", align 1
@.str.7 = private unnamed_addr constant [18 x i8] c"serializer_yaml.c\00", align 1
@.str.8 = private unnamed_addr constant [23 x i8] c"tag:yaml.org,2002:null\00", align 1
@.str.9 = private unnamed_addr constant [5 x i8] c"null\00", align 1
@__func__._emit_string = private unnamed_addr constant [13 x i8] c"_emit_string\00", align 1
@.str.21 = private unnamed_addr constant [22 x i8] c"tag:yaml.org,2002:str\00", align 1

; Function Attrs: nounwind uwtable
define internal i32 @_emit_string(ptr noundef %0, ptr noundef %1) #0 {
  %3 = alloca i32, align 4
  %4 = alloca ptr, align 8
  %5 = alloca ptr, align 8
  %6 = alloca %struct.yaml_event_s, align 8
  %7 = alloca i32, align 4
  store ptr %0, ptr %4, align 8
  store ptr %1, ptr %5, align 8
  call void @llvm.lifetime.start.p0(i64 104, ptr %6) #6
  %8 = load ptr, ptr %4, align 8
  %9 = icmp ne ptr %8, null
  br i1 %9, label %34, label %10

10:                                               ; preds = %2
  %11 = call i32 @yaml_scalar_event_initialize(ptr noundef %6, ptr noundef null, ptr noundef @.str.8, ptr noundef @.str.9, i32 noundef 4, i32 noundef 0, i32 noundef 0, i32 noundef 0)
  %12 = icmp ne i32 %11, 0
  br i1 %12, label %21, label %13

13:                                               ; preds = %10
  br label %14

14:                                               ; preds = %13
  %15 = load ptr, ptr %5, align 8
  %16 = getelementptr inbounds nuw %struct.yaml_emitter_s, ptr %15, i32 0, i32 1
  %17 = load ptr, ptr %16, align 8
  %18 = call i32 (ptr, ...) @slurm_error(ptr noundef @.str.6, ptr noundef @.str.7, i32 noundef 422, ptr noundef @__func__._emit_string, ptr noundef %17)
  br label %62

19:                                               ; No predecessors!
  br label %20

20:                                               ; preds = %19
  br label %21

21:                                               ; preds = %20, %10
  %22 = load ptr, ptr %5, align 8
  %23 = call i32 @yaml_emitter_emit(ptr noundef %22, ptr noundef %6)
  %24 = icmp ne i32 %23, 0
  br i1 %24, label %33, label %25

25:                                               ; preds = %21
  br label %26

26:                                               ; preds = %25
  %27 = load ptr, ptr %5, align 8
  %28 = getelementptr inbounds nuw %struct.yaml_emitter_s, ptr %27, i32 0, i32 1
  %29 = load ptr, ptr %28, align 8
  %30 = call i32 (ptr, ...) @slurm_error(ptr noundef @.str.6, ptr noundef @.str.7, i32 noundef 425, ptr noundef @__func__._emit_string, ptr noundef %29)
  br label %62

31:                                               ; No predecessors!
  br label %32

32:                                               ; preds = %31
  br label %33

33:                                               ; preds = %32, %21
  store i32 0, ptr %3, align 4
  store i32 1, ptr %7, align 4
  br label %63

34:                                               ; preds = %2
  %35 = load ptr, ptr %4, align 8
  %36 = load ptr, ptr %4, align 8
  %37 = call i64 @strlen(ptr noundef %36) #7
  %38 = trunc i64 %37 to i32
  %39 = call i32 @yaml_scalar_event_initialize(ptr noundef %6, ptr noundef null, ptr noundef @.str.21, ptr noundef %35, i32 noundef %38, i32 noundef 0, i32 noundef 0, i32 noundef 0)
  %40 = icmp ne i32 %39, 0
  br i1 %40, label %49, label %41

41:                                               ; preds = %34
  br label %42

42:                                               ; preds = %41
  %43 = load ptr, ptr %5, align 8
  %44 = getelementptr inbounds nuw %struct.yaml_emitter_s, ptr %43, i32 0, i32 1
  %45 = load ptr, ptr %44, align 8
  %46 = call i32 (ptr, ...) @slurm_error(ptr noundef @.str.6, ptr noundef @.str.7, i32 noundef 434, ptr noundef @__func__._emit_string, ptr noundef %45)
  br label %62

47:                                               ; No predecessors!
  br label %48

48:                                               ; preds = %47
  br label %49

49:                                               ; preds = %48, %34
  %50 = load ptr, ptr %5, align 8
  %51 = call i32 @yaml_emitter_emit(ptr noundef %50, ptr noundef %6)
  %52 = icmp ne i32 %51, 0
  br i1 %52, label %61, label %53

53:                                               ; preds = %49
  br label %54

54:                                               ; preds = %53
  %55 = load ptr, ptr %5, align 8
  %56 = getelementptr inbounds nuw %struct.yaml_emitter_s, ptr %55, i32 0, i32 1
  %57 = load ptr, ptr %56, align 8
  %58 = call i32 (ptr, ...) @slurm_error(ptr noundef @.str.6, ptr noundef @.str.7, i32 noundef 437, ptr noundef @__func__._emit_string, ptr noundef %57)
  br label %62

59:                                               ; No predecessors!
  br label %60

60:                                               ; preds = %59
  br label %61

61:                                               ; preds = %60, %49
  store i32 0, ptr %3, align 4
  store i32 1, ptr %7, align 4
  br label %63

62:                                               ; preds = %54, %42, %26, %14
  store i32 -1, ptr %3, align 4
  store i32 1, ptr %7, align 4
  br label %63

63:                                               ; preds = %62, %61, %33
  call void @llvm.lifetime.end.p0(i64 104, ptr %6) #6
  %64 = load i32, ptr %3, align 4
  ret i32 %64
}