; Function Attrs: nounwind uwtable
define internal fastcc range(i32 -1, 1) i32 @_emit_string(ptr noundef %0, ptr noundef %1) unnamed_addr #0 {
  %3 = alloca %struct.yaml_event_s, align 8
  call void @llvm.lifetime.start.p0(i64 104, ptr nonnull %3) #6
  %.not = icmp eq ptr %0, null
  br i1 %.not, label %4, label %8

4:                                                ; preds = %2
  %5 = call i32 @yaml_scalar_event_initialize(ptr noundef nonnull %3, ptr noundef null, ptr noundef nonnull @.str.8, ptr noundef nonnull @.str.9, i32 noundef 4, i32 noundef 0, i32 noundef 0, i32 noundef 0) #6
  %.not10 = icmp eq i32 %5, 0
  br i1 %.not10, label %.sink.split, label %6

6:                                                ; preds = %4
  %7 = call i32 @yaml_emitter_emit(ptr noundef %1, ptr noundef nonnull %3) #6
  %.not11 = icmp eq i32 %7, 0
  br i1 %.not11, label %.sink.split, label %17

8:                                                ; preds = %2
  %9 = tail call i64 @strlen(ptr noundef nonnull dereferenceable(1) %0) #7
  %10 = trunc i64 %9 to i32
  %11 = call i32 @yaml_scalar_event_initialize(ptr noundef nonnull %3, ptr noundef null, ptr noundef nonnull @.str.21, ptr noundef nonnull %0, i32 noundef %10, i32 noundef 0, i32 noundef 0, i32 noundef 0) #6
  %.not12 = icmp eq i32 %11, 0
  br i1 %.not12, label %.sink.split, label %12

12:                                               ; preds = %8
  %13 = call i32 @yaml_emitter_emit(ptr noundef %1, ptr noundef nonnull %3) #6
  %.not13 = icmp eq i32 %13, 0
  br i1 %.not13, label %.sink.split, label %17

.sink.split:                                      ; preds = %12, %8, %6, %4
  %.sink = phi i32 [ 422, %4 ], [ 425, %6 ], [ 434, %8 ], [ 437, %12 ]
  %14 = getelementptr inbounds nuw i8, ptr %1, i64 8
  %15 = load ptr, ptr %14, align 8
  %16 = call i32 (ptr, ...) @slurm_error(ptr noundef nonnull @.str.6, ptr noundef nonnull @.str.7, i32 noundef %.sink, ptr noundef nonnull @__func__._emit_string, ptr noundef %15) #6
  br label %17

17:                                               ; preds = %.sink.split, %12, %6
  %.0 = phi i32 [ 0, %6 ], [ 0, %12 ], [ -1, %.sink.split ]
  call void @llvm.lifetime.end.p0(i64 104, ptr nonnull %3) #6
  ret i32 %.0
}